target datalayout = "e-m:e-p270:32:32-p271:32:32-p272:64:64-i64:64-i128:128-f80:128-n8:16:32:64-S128"
target triple = "x86_64-pc-linux-gnu"

%"class.OpenColorIO_v2_5dev::GpuShaderCreator" = type { ptr, ptr }

; Function Attrs: mustprogress uwtable
define void @_ZN19OpenColorIO_v2_5dev16GpuShaderCreatorC2Ev(ptr noundef nonnull align 8 dereferenceable(16) %0) unnamed_addr #0 align 2 personality ptr @__gxx_personality_v0 {
  %2 = alloca ptr, align 8
  %3 = alloca ptr, align 8
  %4 = alloca i32, align 4
  store ptr %0, ptr %2, align 8, !tbaa !3
  %5 = load ptr, ptr %2, align 8
  store ptr getelementptr inbounds inrange(-16, 192) ({ [26 x ptr] }, ptr @_ZTVN19OpenColorIO_v2_5dev16GpuShaderCreatorE, i32 0, i32 0, i32 2), ptr %5, align 8, !tbaa !8
  %6 = getelementptr inbounds nuw %"class.OpenColorIO_v2_5dev::GpuShaderCreator", ptr %5, i32 0, i32 1
  %7 = call noalias noundef nonnull ptr @_Znwm(i64 noundef 472) #18
  invoke void @_ZN19OpenColorIO_v2_5dev16GpuShaderCreator4ImplC2Ev(ptr noundef nonnull align 8 dereferenceable(472) %7)
          to label %8 unwind label %9

8:                                                ; preds = %1
  store ptr %7, ptr %6, align 8, !tbaa !10
  ret void

9:                                                ; preds = %1
  %10 = landingpad { ptr, i32 }
          cleanup
  %11 = extractvalue { ptr, i32 } %10, 0
  store ptr %11, ptr %3, align 8
  %12 = extractvalue { ptr, i32 } %10, 1
  store i32 %12, ptr %4, align 4
  call void @_ZdlPvm(ptr noundef %7, i64 noundef 472) #19
  br label %13

13:                                               ; preds = %9
  %14 = load ptr, ptr %3, align 8
  %15 = load i32, ptr %4, align 4
  %16 = insertvalue { ptr, i32 } poison, ptr %14, 0
  %17 = insertvalue { ptr, i32 } %16, i32 %15, 1
  resume { ptr, i32 } %17
}